target datalayout = "e-m:e-p270:32:32-p271:32:32-p272:64:64-i64:64-i128:128-f80:128-n8:16:32:64-S128"
target triple = "x86_64-pc-linux-gnu"

%struct.anon.5 = type { i32, i16 }

; Function Attrs: nounwind uwtable
define zeroext i16 @tls1_nid2group_id(i32 noundef %0) #1 {
  %2 = alloca i16, align 2
  %3 = alloca i32, align 4
  %4 = alloca i64, align 8
  %5 = alloca i32, align 4
  store i32 %0, ptr %3, align 4, !tbaa !128
  call void @llvm.lifetime.start.p0(i64 8, ptr %4) #8
  store i64 0, ptr %4, align 8, !tbaa !3
  br label %6

6:                                                ; preds = %22, %1
  %7 = load i64, ptr %4, align 8, !tbaa !3
  %8 = icmp ult i64 %7, 45
  br i1 %8, label %9, label %25

9:                                                ; preds = %6
  %10 = load i64, ptr %4, align 8, !tbaa !3
  %11 = getelementptr inbounds nuw [45 x %struct.anon.5], ptr @nid_to_group, i64 0, i64 %10
  %12 = getelementptr inbounds nuw %struct.anon.5, ptr %11, i32 0, i32 0
  %13 = load i32, ptr %12, align 8, !tbaa !131
  %14 = load i32, ptr %3, align 4, !tbaa !128
  %15 = icmp eq i32 %13, %14
  br i1 %15, label %16, label %21

16:                                               ; preds = %9
  %17 = load i64, ptr %4, align 8, !tbaa !3
  %18 = getelementptr inbounds nuw [45 x %struct.anon.5], ptr @nid_to_group, i64 0, i64 %17
  %19 = getelementptr inbounds nuw %struct.anon.5, ptr %18, i32 0, i32 1
  %20 = load i16, ptr %19, align 4, !tbaa !129
  store i16 %20, ptr %2, align 2
  store i32 1, ptr %5, align 4
  br label %26

21:                                               ; preds = %9
  br label %22

22:                                               ; preds = %21
  %23 = load i64, ptr %4, align 8, !tbaa !3
  %24 = add i64 %23, 1
  store i64 %24, ptr %4, align 8, !tbaa !3
  br label %6, !llvm.loop !133

25:                                               ; preds = %6
  store i16 0, ptr %2, align 2
  store i32 1, ptr %5, align 4
  br label %26

26:                                               ; preds = %25, %16
  call void @llvm.lifetime.end.p0(i64 8, ptr %4) #8
  %27 = load i16, ptr %2, align 2
  ret i16 %27
}

; Function Attrs: nounwind uwtable
define i32 @ssl_get_EC_curve_nid(ptr noundef %0) #1 {
  %2 = alloca i32, align 4
  %3 = alloca ptr, align 8
  %4 = alloca [50 x i8], align 16
  %5 = alloca i32, align 4
  store ptr %0, ptr %3, align 8, !tbaa !202
  call void @llvm.lifetime.start.p0(i64 50, ptr %4) #8
  %6 = load ptr, ptr %3, align 8, !tbaa !202
  %7 = getelementptr inbounds [50 x i8], ptr %4, i64 0, i64 0
  %8 = call i32 @EVP_PKEY_get_group_name(ptr noundef %6, ptr noundef %7, i64 noundef 50, ptr noundef null)
  %9 = icmp sgt i32 %8, 0
  br i1 %9, label %10, label %13

10:                                               ; preds = %1
  %11 = getelementptr inbounds [50 x i8], ptr %4, i64 0, i64 0
  %12 = call i32 @OBJ_txt2nid(ptr noundef %11)
  store i32 %12, ptr %2, align 4
  store i32 1, ptr %5, align 4
  br label %14

13:                                               ; preds = %1
  store i32 0, ptr %2, align 4
  store i32 1, ptr %5, align 4
  br label %14

14:                                               ; preds = %13, %10
  call void @llvm.lifetime.end.p0(i64 50, ptr %4) #8
  %15 = load i32, ptr %2, align 4
  ret i32 %15
}

; Function Attrs: nounwind uwtable
define internal zeroext i16 @tls1_get_group_id(ptr noundef %0) #1 {
  %2 = alloca i16, align 2
  %3 = alloca ptr, align 8
  %4 = alloca i32, align 4
  %5 = alloca i32, align 4
  store ptr %0, ptr %3, align 8, !tbaa !202
  call void @llvm.lifetime.start.p0(i64 4, ptr %4) #8
  %6 = load ptr, ptr %3, align 8, !tbaa !202
  %7 = call i32 @ssl_get_EC_curve_nid(ptr noundef %6)
  store i32 %7, ptr %4, align 4, !tbaa !128
  %8 = load i32, ptr %4, align 4, !tbaa !128
  %9 = icmp eq i32 %8, 0
  br i1 %9, label %10, label %11

10:                                               ; preds = %1
  store i16 0, ptr %2, align 2
  store i32 1, ptr %5, align 4
  br label %14

11:                                               ; preds = %1
  %12 = load i32, ptr %4, align 4, !tbaa !128
  %13 = call zeroext i16 @tls1_nid2group_id(i32 noundef %12)
  store i16 %13, ptr %2, align 2
  store i32 1, ptr %5, align 4
  br label %14

14:                                               ; preds = %11, %10
  call void @llvm.lifetime.end.p0(i64 4, ptr %4) #8
  %15 = load i16, ptr %2, align 2
  ret i16 %15
}