; Function Attrs: nounwind uwtable
define internal fastcc zeroext i16 @tls1_get_group_id(ptr noundef %0) unnamed_addr #2 {
  %2 = alloca [50 x i8], align 16
  call void @llvm.lifetime.start.p0(i64 50, ptr nonnull %2) #14
  %3 = call i32 @EVP_PKEY_get_group_name(ptr noundef %0, ptr noundef nonnull %2, i64 noundef 50, ptr noundef null) #14
  %4 = icmp sgt i32 %3, 0
  br i1 %4, label %ssl_get_EC_curve_nid.exit, label %ssl_get_EC_curve_nid.exit.thread

ssl_get_EC_curve_nid.exit.thread:                 ; preds = %1
  call void @llvm.lifetime.end.p0(i64 50, ptr nonnull %2) #14
  br label %tls1_nid2group_id.exit

ssl_get_EC_curve_nid.exit:                        ; preds = %1
  %5 = call i32 @OBJ_txt2nid(ptr noundef nonnull %2) #14
  call void @llvm.lifetime.end.p0(i64 50, ptr nonnull %2) #14
  %6 = icmp eq i32 %5, 0
  br i1 %6, label %tls1_nid2group_id.exit, label %.preheader

.preheader:                                       ; preds = %ssl_get_EC_curve_nid.exit, %13
  %.07.i = phi i64 [ %14, %13 ], [ 0, %ssl_get_EC_curve_nid.exit ]
  %7 = getelementptr inbounds nuw [45 x %struct.anon.5], ptr @nid_to_group, i64 0, i64 %.07.i
  %8 = load i32, ptr %7, align 8, !tbaa !124
  %9 = icmp eq i32 %8, %5
  br i1 %9, label %10, label %13

10:                                               ; preds = %.preheader
  %11 = getelementptr inbounds nuw [45 x %struct.anon.5], ptr @nid_to_group, i64 0, i64 %.07.i, i32 1
  %12 = load i16, ptr %11, align 4, !tbaa !122
  br label %tls1_nid2group_id.exit

13:                                               ; preds = %.preheader
  %14 = add nuw nsw i64 %.07.i, 1
  %exitcond.not.i = icmp eq i64 %14, 45
  br i1 %exitcond.not.i, label %tls1_nid2group_id.exit, label %.preheader, !llvm.loop !125

tls1_nid2group_id.exit:                           ; preds = %13, %10, %ssl_get_EC_curve_nid.exit.thread, %ssl_get_EC_curve_nid.exit
  %.0 = phi i16 [ 0, %ssl_get_EC_curve_nid.exit ], [ 0, %ssl_get_EC_curve_nid.exit.thread ], [ %12, %10 ], [ 0, %13 ]
  ret i16 %.0
}